; Function Attrs: nounwind uwtable
define dso_local noundef ptr @GetForeignServerByName(ptr noundef %0, i1 noundef zeroext %1) local_unnamed_addr #0 {
  %3 = ptrtoint ptr %0 to i64
  %4 = tail call i32 @GetSysCacheOid(i32 noundef 31, i16 noundef signext 1, i64 noundef %3, i64 noundef 0, i64 noundef 0, i64 noundef 0) #8
  %.not.i = icmp ne i32 %4, 0
  %brmerge.i = or i1 %1, %.not.i
  br i1 %brmerge.i, label %get_foreign_server_oid.exit, label %5

5:                                                ; preds = %2
  %6 = tail call zeroext i1 @errstart_cold(i32 noundef 21, ptr noundef null) #9
  tail call void @llvm.assume(i1 %6)
  %7 = tail call i32 @errcode(i32 noundef 67137668) #8
  %8 = tail call i32 (ptr, ...) @errmsg(ptr noundef nonnull @.str.14, ptr noundef %0) #8
  tail call void @errfinish(ptr noundef nonnull @.str.1, i32 noundef 713, ptr noundef nonnull @__func__.get_foreign_server_oid) #8
  unreachable

get_foreign_server_oid.exit:                      ; preds = %2
  %.not = icmp eq i32 %4, 0
  br i1 %.not, label %11, label %9

9:                                                ; preds = %get_foreign_server_oid.exit
  %10 = tail call noundef ptr @GetForeignServerExtended(i32 noundef %4, i16 noundef zeroext 0)
  br label %11

11:                                               ; preds = %get_foreign_server_oid.exit, %9
  %.0 = phi ptr [ %10, %9 ], [ null, %get_foreign_server_oid.exit ]
  ret ptr %.0
}